; Function Attrs: mustprogress nofree nounwind memory(write) uwtable
define noundef float @_Z20cosine_decay_restartllff(i64 noundef %step, i64 noundef %decay_steps, float noundef %minimum, float noundef %restart_step_mult) local_unnamed_addr #21 {
entry:
  %cmp6 = icmp sgt i64 %step, %decay_steps
  br i1 %cmp6, label %while.body, label %while.end

while.body:                                       ; preds = %entry, %while.body
  %step.addr.08 = phi i64 [ %sub, %while.body ], [ %step, %entry ]
  %decay_steps.addr.07 = phi i64 [ %conv1, %while.body ], [ %decay_steps, %entry ]
  %sub = sub nsw i64 %step.addr.08, %decay_steps.addr.07
  %conv = sitofp i64 %decay_steps.addr.07 to float
  %mul = fmul float %restart_step_mult, %conv
  %conv1 = fptosi float %mul to i64
  %cmp = icmp sgt i64 %sub, %conv1
  br i1 %cmp, label %while.body, label %while.end, !llvm.loop !42

while.end:                                        ; preds = %while.body, %entry
  %decay_steps.addr.0.lcssa = phi i64 [ %decay_steps, %entry ], [ %conv1, %while.body ]
  %step.addr.0.lcssa = phi i64 [ %step, %entry ], [ %sub, %while.body ]
  %conv.i = sitofp i64 %step.addr.0.lcssa to float
  %mul.i = fmul float %conv.i, 0x400921FB60000000
  %conv1.i = sitofp i64 %decay_steps.addr.0.lcssa to float
  %div.i = fdiv float %mul.i, %conv1.i
  %call.i = tail call float @cosf(float noundef %div.i) #36
  %add.i = fadd float %call.i, 1.000000e+00
  %mul2.i = fmul float %add.i, 5.000000e-01
  %sub.i = fsub float 1.000000e+00, %minimum
  %0 = tail call noundef float @llvm.fmuladd.f32(float %sub.i, float %mul2.i, float %minimum)
  ret float %0
}